target datalayout = "e-m:e-p270:32:32-p271:32:32-p272:64:64-i64:64-i128:128-f80:128-n8:16:32:64-S128"
target triple = "x86_64-pc-linux-gnu"

%class.ForeignLambdaTerms = type <{ i32, [4 x i8], ptr, %"class.std::vector", %"class.std::vector.0", i8, [7 x i8] }>
%"class.std::vector" = type { %"struct.std::_Vector_base" }
%"struct.std::_Vector_base" = type { %"struct.std::_Vector_base<double, std::allocator<double>>::_Vector_impl" }
%"struct.std::_Vector_base<double, std::allocator<double>>::_Vector_impl" = type { %"struct.std::_Vector_base<double, std::allocator<double>>::_Vector_impl_data" }
%"struct.std::_Vector_base<double, std::allocator<double>>::_Vector_impl_data" = type { ptr, ptr, ptr }
%"class.std::vector.0" = type { %"struct.std::_Vector_base.1" }
%"struct.std::_Vector_base.1" = type { %"struct.std::_Vector_base<gmx::EnumerationArray<FreeEnergyPerturbationCouplingType, double>, std::allocator<gmx::EnumerationArray<FreeEnergyPerturbationCouplingType, double>>>::_Vector_impl" }
%"struct.std::_Vector_base<gmx::EnumerationArray<FreeEnergyPerturbationCouplingType, double>, std::allocator<gmx::EnumerationArray<FreeEnergyPerturbationCouplingType, double>>>::_Vector_impl" = type { %"struct.std::_Vector_base<gmx::EnumerationArray<FreeEnergyPerturbationCouplingType, double>, std::allocator<gmx::EnumerationArray<FreeEnergyPerturbationCouplingType, double>>>::_Vector_impl_data" }
%"struct.std::_Vector_base<gmx::EnumerationArray<FreeEnergyPerturbationCouplingType, double>, std::allocator<gmx::EnumerationArray<FreeEnergyPerturbationCouplingType, double>>>::_Vector_impl_data" = type { ptr, ptr, ptr }
%"struct.gmx::EnumerationArray" = type { [7 x %"class.std::vector"] }
%"struct.gmx::EnumerationArray.5" = type { [7 x double] }
%struct.gmx_enerdata_t = type { %"struct.std::array", %struct.gmx_grppairener_t, %"struct.gmx::EnumerationArray.5", %"struct.gmx::EnumerationArray.5", %class.ForeignLambdaTerms }
%"struct.std::array" = type { [94 x float] }
%struct.gmx_grppairener_t = type { i32, %"struct.gmx::EnumerationArray.13" }
%"struct.gmx::EnumerationArray.13" = type { [5 x %"class.std::vector.14"] }
%"class.std::vector.14" = type { %"struct.std::_Vector_base.15" }
%"struct.std::_Vector_base.15" = type { %"struct.std::_Vector_base<float, std::allocator<float>>::_Vector_impl" }
%"struct.std::_Vector_base<float, std::allocator<float>>::_Vector_impl" = type { %"struct.std::_Vector_base<float, std::allocator<float>>::_Vector_impl_data" }
%"struct.std::_Vector_base<float, std::allocator<float>>::_Vector_impl_data" = type { ptr, ptr, ptr }
%struct.t_lambda = type { i32, double, i32, double, i32, i32, %"struct.gmx::EnumerationArray", i32, i32, i32, float, i32, float, float, float, i8, i32, float, float, float, %"struct.gmx::EnumerationArray.22", i32, i32, i32, double }
%"struct.gmx::EnumerationArray.22" = type { [7 x i8] }

@debug = external global ptr, align 8
@.str.7 = private unnamed_addr constant [45 x i8] c"dvdl-%s[%2d]: %f: non-linear %f + linear %f\0A\00", align 1
@.str.8 = private unnamed_addr constant [45 x i8] c"dvd-%sl[%2d]: %f: non-linear %f + linear %f\0A\00", align 1

; Function Attrs: mustprogress nounwind uwtable
define linkonce_odr noundef nonnull align 4 dereferenceable(4) ptr @_ZNSt14__array_traitsIfLm94EE6_S_refERA94_Kfm(ptr noundef nonnull align 4 dereferenceable(376) %0, i64 noundef %1) #1 comdat align 2 {
  %3 = alloca ptr, align 8
  %4 = alloca i64, align 8
  store ptr %0, ptr %3, align 8
  store i64 %1, ptr %4, align 8
  %5 = load ptr, ptr %3, align 8
  %6 = load i64, ptr %4, align 8
  %7 = getelementptr inbounds [94 x float], ptr %5, i64 0, i64 %6
  ret ptr %7
}

; Function Attrs: mustprogress nounwind uwtable
define linkonce_odr noundef nonnull align 4 dereferenceable(4) ptr @_ZNSt5arrayIfLm94EEixEm(ptr noundef nonnull align 4 dereferenceable(376) %0, i64 noundef %1) #1 comdat align 2 {
  %3 = alloca ptr, align 8
  %4 = alloca i64, align 8
  store ptr %0, ptr %3, align 8
  store i64 %1, ptr %4, align 8
  %5 = load ptr, ptr %3, align 8
  %6 = getelementptr inbounds %"struct.std::array", ptr %5, i32 0, i32 0
  %7 = load i64, ptr %4, align 8
  %8 = call noundef nonnull align 4 dereferenceable(4) ptr @_ZNSt14__array_traitsIfLm94EE6_S_refERA94_Kfm(ptr noundef nonnull align 4 dereferenceable(376) %6, i64 noundef %7) #12
  ret ptr %8
}

; Function Attrs: mustprogress nounwind uwtable
define linkonce_odr noundef nonnull align 8 dereferenceable(8) ptr @_ZN3gmx16EnumerationArrayI34FreeEnergyPerturbationCouplingTypedLS1_7EEixES1_(ptr noundef nonnull align 8 dereferenceable(56) %0, i32 noundef %1) #1 comdat align 2 {
  %3 = alloca ptr, align 8
  %4 = alloca i32, align 4
  store ptr %0, ptr %3, align 8
  store i32 %1, ptr %4, align 4
  %5 = load ptr, ptr %3, align 8
  %6 = getelementptr inbounds %"struct.gmx::EnumerationArray.5", ptr %5, i32 0, i32 0
  %7 = load i32, ptr %4, align 4
  %8 = sext i32 %7 to i64
  %9 = getelementptr inbounds [7 x double], ptr %6, i64 0, i64 %8
  ret ptr %9
}

; Function Attrs: mustprogress nounwind uwtable
define linkonce_odr noundef nonnull align 1 dereferenceable(1) ptr @_ZNK3gmx16EnumerationArrayI34FreeEnergyPerturbationCouplingTypebLS1_7EEixES1_(ptr noundef nonnull align 1 dereferenceable(7) %0, i32 noundef %1) #1 comdat align 2 {
  %3 = alloca ptr, align 8
  %4 = alloca i32, align 4
  store ptr %0, ptr %3, align 8
  store i32 %1, ptr %4, align 4
  %5 = load ptr, ptr %3, align 8
  %6 = getelementptr inbounds %"struct.gmx::EnumerationArray.22", ptr %5, i32 0, i32 0
  %7 = load i32, ptr %4, align 4
  %8 = sext i32 %7 to i64
  %9 = getelementptr inbounds [7 x i8], ptr %6, i64 0, i64 %8
  ret ptr %9
}

; Function Attrs: mustprogress uwtable
define internal void @_ZL15set_dhdl_outputP14gmx_enerdata_t34FreeEnergyPerturbationCouplingTypeRK8t_lambda(ptr noundef %0, i32 noundef %1, ptr noundef nonnull align 8 dereferenceable(288) %2) #0 {
  %4 = alloca ptr, align 8
  %5 = alloca i32, align 4
  %6 = alloca ptr, align 8
  %7 = alloca i32, align 4
  store ptr %0, ptr %4, align 8
  store i32 %1, ptr %5, align 4
  store ptr %2, ptr %6, align 8
  %8 = load ptr, ptr %6, align 8
  %9 = getelementptr inbounds %struct.t_lambda, ptr %8, i32 0, i32 20
  %10 = load i32, ptr %5, align 4
  %11 = call noundef nonnull align 1 dereferenceable(1) ptr @_ZNK3gmx16EnumerationArrayI34FreeEnergyPerturbationCouplingTypebLS1_7EEixES1_(ptr noundef nonnull align 1 dereferenceable(7) %9, i32 noundef %10)
  %12 = load i8, ptr %11, align 1
  %13 = trunc i8 %12 to i1
  br i1 %13, label %14, label %66

14:                                               ; preds = %3
  %15 = load i32, ptr %5, align 4
  switch i32 %15, label %21 [
    i32 1, label %16
    i32 2, label %17
    i32 3, label %18
    i32 4, label %19
    i32 5, label %20
  ]

16:                                               ; preds = %14
  store i32 88, ptr %7, align 4
  br label %22

17:                                               ; preds = %14
  store i32 89, ptr %7, align 4
  br label %22

18:                                               ; preds = %14
  store i32 90, ptr %7, align 4
  br label %22

19:                                               ; preds = %14
  store i32 91, ptr %7, align 4
  br label %22

20:                                               ; preds = %14
  store i32 92, ptr %7, align 4
  br label %22

21:                                               ; preds = %14
  store i32 87, ptr %7, align 4
  br label %22

22:                                               ; preds = %21, %20, %19, %18, %17, %16
  %23 = load ptr, ptr %4, align 8
  %24 = getelementptr inbounds %struct.gmx_enerdata_t, ptr %23, i32 0, i32 2
  %25 = load i32, ptr %5, align 4
  %26 = call noundef nonnull align 8 dereferenceable(8) ptr @_ZN3gmx16EnumerationArrayI34FreeEnergyPerturbationCouplingTypedLS1_7EEixES1_(ptr noundef nonnull align 8 dereferenceable(56) %24, i32 noundef %25)
  %27 = load double, ptr %26, align 8
  %28 = load ptr, ptr %4, align 8
  %29 = getelementptr inbounds %struct.gmx_enerdata_t, ptr %28, i32 0, i32 3
  %30 = load i32, ptr %5, align 4
  %31 = call noundef nonnull align 8 dereferenceable(8) ptr @_ZN3gmx16EnumerationArrayI34FreeEnergyPerturbationCouplingTypedLS1_7EEixES1_(ptr noundef nonnull align 8 dereferenceable(56) %29, i32 noundef %30)
  %32 = load double, ptr %31, align 8
  %33 = fadd double %27, %32
  %34 = fptrunc double %33 to float
  %35 = load ptr, ptr %4, align 8
  %36 = getelementptr inbounds %struct.gmx_enerdata_t, ptr %35, i32 0, i32 0
  %37 = load i32, ptr %7, align 4
  %38 = sext i32 %37 to i64
  %39 = call noundef nonnull align 4 dereferenceable(4) ptr @_ZNSt5arrayIfLm94EEixEm(ptr noundef nonnull align 4 dereferenceable(376) %36, i64 noundef %38) #12
  store float %34, ptr %39, align 4
  %40 = load ptr, ptr @debug, align 8
  %41 = icmp ne ptr %40, null
  br i1 %41, label %42, label %65

42:                                               ; preds = %22
  %43 = load ptr, ptr @debug, align 8
  %44 = load i32, ptr %5, align 4
  %45 = call noundef ptr @_Z17enumValueToString34FreeEnergyPerturbationCouplingType(i32 noundef %44)
  %46 = load i32, ptr %5, align 4
  %47 = load ptr, ptr %4, align 8
  %48 = getelementptr inbounds %struct.gmx_enerdata_t, ptr %47, i32 0, i32 0
  %49 = load i32, ptr %7, align 4
  %50 = sext i32 %49 to i64
  %51 = call noundef nonnull align 4 dereferenceable(4) ptr @_ZNSt5arrayIfLm94EEixEm(ptr noundef nonnull align 4 dereferenceable(376) %48, i64 noundef %50) #12
  %52 = load float, ptr %51, align 4
  %53 = fpext float %52 to double
  %54 = load ptr, ptr %4, align 8
  %55 = getelementptr inbounds %struct.gmx_enerdata_t, ptr %54, i32 0, i32 3
  %56 = load i32, ptr %5, align 4
  %57 = call noundef nonnull align 8 dereferenceable(8) ptr @_ZN3gmx16EnumerationArrayI34FreeEnergyPerturbationCouplingTypedLS1_7EEixES1_(ptr noundef nonnull align 8 dereferenceable(56) %55, i32 noundef %56)
  %58 = load double, ptr %57, align 8
  %59 = load ptr, ptr %4, align 8
  %60 = getelementptr inbounds %struct.gmx_enerdata_t, ptr %59, i32 0, i32 2
  %61 = load i32, ptr %5, align 4
  %62 = call noundef nonnull align 8 dereferenceable(8) ptr @_ZN3gmx16EnumerationArrayI34FreeEnergyPerturbationCouplingTypedLS1_7EEixES1_(ptr noundef nonnull align 8 dereferenceable(56) %60, i32 noundef %61)
  %63 = load double, ptr %62, align 8
  %64 = call i32 (ptr, ptr, ...) @fprintf(ptr noundef %43, ptr noundef @.str.7, ptr noundef %45, i32 noundef %46, double noundef %53, double noundef %58, double noundef %63) #12
  br label %65

65:                                               ; preds = %42, %22
  br label %108

66:                                               ; preds = %3
  %67 = load ptr, ptr %4, align 8
  %68 = getelementptr inbounds %struct.gmx_enerdata_t, ptr %67, i32 0, i32 2
  %69 = load i32, ptr %5, align 4
  %70 = call noundef nonnull align 8 dereferenceable(8) ptr @_ZN3gmx16EnumerationArrayI34FreeEnergyPerturbationCouplingTypedLS1_7EEixES1_(ptr noundef nonnull align 8 dereferenceable(56) %68, i32 noundef %69)
  %71 = load double, ptr %70, align 8
  %72 = load ptr, ptr %4, align 8
  %73 = getelementptr inbounds %struct.gmx_enerdata_t, ptr %72, i32 0, i32 3
  %74 = load i32, ptr %5, align 4
  %75 = call noundef nonnull align 8 dereferenceable(8) ptr @_ZN3gmx16EnumerationArrayI34FreeEnergyPerturbationCouplingTypedLS1_7EEixES1_(ptr noundef nonnull align 8 dereferenceable(56) %73, i32 noundef %74)
  %76 = load double, ptr %75, align 8
  %77 = fadd double %71, %76
  %78 = load ptr, ptr %4, align 8
  %79 = getelementptr inbounds %struct.gmx_enerdata_t, ptr %78, i32 0, i32 0
  %80 = call noundef nonnull align 4 dereferenceable(4) ptr @_ZNSt5arrayIfLm94EEixEm(ptr noundef nonnull align 4 dereferenceable(376) %79, i64 noundef 87) #12
  %81 = load float, ptr %80, align 4
  %82 = fpext float %81 to double
  %83 = fadd double %82, %77
  %84 = fptrunc double %83 to float
  store float %84, ptr %80, align 4
  %85 = load ptr, ptr @debug, align 8
  %86 = icmp ne ptr %85, null
  br i1 %86, label %87, label %107

87:                                               ; preds = %66
  %88 = load ptr, ptr @debug, align 8
  %89 = call noundef ptr @_Z17enumValueToString34FreeEnergyPerturbationCouplingType(i32 noundef 0)
  %90 = load i32, ptr %5, align 4
  %91 = load ptr, ptr %4, align 8
  %92 = getelementptr inbounds %struct.gmx_enerdata_t, ptr %91, i32 0, i32 0
  %93 = call noundef nonnull align 4 dereferenceable(4) ptr @_ZNSt5arrayIfLm94EEixEm(ptr noundef nonnull align 4 dereferenceable(376) %92, i64 noundef 87) #12
  %94 = load float, ptr %93, align 4
  %95 = fpext float %94 to double
  %96 = load ptr, ptr %4, align 8
  %97 = getelementptr inbounds %struct.gmx_enerdata_t, ptr %96, i32 0, i32 3
  %98 = load i32, ptr %5, align 4
  %99 = call noundef nonnull align 8 dereferenceable(8) ptr @_ZN3gmx16EnumerationArrayI34FreeEnergyPerturbationCouplingTypedLS1_7EEixES1_(ptr noundef nonnull align 8 dereferenceable(56) %97, i32 noundef %98)
  %100 = load double, ptr %99, align 8
  %101 = load ptr, ptr %4, align 8
  %102 = getelementptr inbounds %struct.gmx_enerdata_t, ptr %101, i32 0, i32 2
  %103 = load i32, ptr %5, align 4
  %104 = call noundef nonnull align 8 dereferenceable(8) ptr @_ZN3gmx16EnumerationArrayI34FreeEnergyPerturbationCouplingTypedLS1_7EEixES1_(ptr noundef nonnull align 8 dereferenceable(56) %102, i32 noundef %103)
  %105 = load double, ptr %104, align 8
  %106 = call i32 (ptr, ptr, ...) @fprintf(ptr noundef %88, ptr noundef @.str.8, ptr noundef %89, i32 noundef %90, double noundef %95, double noundef %100, double noundef %105) #12
  br label %107

107:                                              ; preds = %87, %66
  br label %108

108:                                              ; preds = %107, %65
  ret void
}