; Function Attrs: mustprogress uwtable
define internal fastcc void @_ZL15set_dhdl_outputP14gmx_enerdata_t34FreeEnergyPerturbationCouplingTypeRK8t_lambda(ptr nocapture noundef %0, i32 noundef %1, ptr nocapture noundef nonnull readonly align 8 dereferenceable(288) %2) unnamed_addr #0 {
  %4 = getelementptr inbounds i8, ptr %2, i64 260
  %5 = sext i32 %1 to i64
  %6 = getelementptr inbounds [7 x i8], ptr %4, i64 0, i64 %5
  %7 = load i8, ptr %6, align 1
  %8 = trunc i8 %7 to i1
  br i1 %8, label %9, label %28

9:                                                ; preds = %3
  %switch.tableidx = add i32 %1, -1
  %10 = icmp ult i32 %switch.tableidx, 5
  %switch.idx.cast = zext i32 %switch.tableidx to i64
  %switch.offset = add nuw nsw i64 %switch.idx.cast, 88
  %.0 = select i1 %10, i64 %switch.offset, i64 87
  %11 = getelementptr inbounds i8, ptr %0, i64 504
  %12 = getelementptr inbounds [7 x double], ptr %11, i64 0, i64 %5
  %13 = load double, ptr %12, align 8
  %14 = getelementptr inbounds i8, ptr %0, i64 560
  %15 = getelementptr inbounds [7 x double], ptr %14, i64 0, i64 %5
  %16 = load double, ptr %15, align 8
  %17 = fadd double %13, %16
  %18 = fptrunc double %17 to float
  %19 = getelementptr inbounds [94 x float], ptr %0, i64 0, i64 %.0
  store float %18, ptr %19, align 4
  %20 = load ptr, ptr @debug, align 8
  %.not29 = icmp eq ptr %20, null
  br i1 %.not29, label %49, label %21

21:                                               ; preds = %9
  %22 = tail call noundef ptr @_Z17enumValueToString34FreeEnergyPerturbationCouplingType(i32 noundef %1)
  %23 = load float, ptr %19, align 4
  %24 = fpext float %23 to double
  %25 = load double, ptr %15, align 8
  %26 = load double, ptr %12, align 8
  %27 = tail call i32 (ptr, ptr, ...) @fprintf(ptr noundef nonnull %20, ptr noundef nonnull @.str.7, ptr noundef %22, i32 noundef %1, double noundef %24, double noundef %25, double noundef %26) #20
  br label %49

28:                                               ; preds = %3
  %29 = getelementptr inbounds i8, ptr %0, i64 504
  %30 = getelementptr inbounds [7 x double], ptr %29, i64 0, i64 %5
  %31 = load double, ptr %30, align 8
  %32 = getelementptr inbounds i8, ptr %0, i64 560
  %33 = getelementptr inbounds [7 x double], ptr %32, i64 0, i64 %5
  %34 = load double, ptr %33, align 8
  %35 = fadd double %31, %34
  %36 = getelementptr inbounds i8, ptr %0, i64 348
  %37 = load float, ptr %36, align 4
  %38 = fpext float %37 to double
  %39 = fadd double %35, %38
  %40 = fptrunc double %39 to float
  store float %40, ptr %36, align 4
  %41 = load ptr, ptr @debug, align 8
  %.not = icmp eq ptr %41, null
  br i1 %.not, label %49, label %42

42:                                               ; preds = %28
  %43 = tail call noundef ptr @_Z17enumValueToString34FreeEnergyPerturbationCouplingType(i32 noundef 0)
  %44 = load float, ptr %36, align 4
  %45 = fpext float %44 to double
  %46 = load double, ptr %33, align 8
  %47 = load double, ptr %30, align 8
  %48 = tail call i32 (ptr, ptr, ...) @fprintf(ptr noundef nonnull %41, ptr noundef nonnull @.str.8, ptr noundef %43, i32 noundef %1, double noundef %45, double noundef %46, double noundef %47) #20
  br label %49

49:                                               ; preds = %28, %42, %9, %21
  ret void
}